; ModuleID = '19/466.c'
source_filename = "19/466.c"
target datalayout = "e-m:e-p270:32:32-p271:32:32-p272:64:64-i64:64-f80:128-n8:16:32:64-S128"
target triple = "x86_64-pc-linux-gnu"

@.str = private unnamed_addr constant [3 x i8] c"%s\00", align 1

; Function Attrs: noinline nounwind uwtable
define dso_local void @f(i8* %0, i8* %1, i8* %2, i32 %3, i32 %4) #0 {
  %6 = alloca i8*, align 8
  %7 = alloca i8*, align 8
  %8 = alloca i8*, align 8
  %9 = alloca i32, align 4
  %10 = alloca i32, align 4
  %11 = alloca i32, align 4
  %12 = alloca i32, align 4
  %13 = alloca i32, align 4
  %14 = alloca i32, align 4
  %15 = alloca i32, align 4
  %16 = alloca [100 x i8], align 16
  %17 = alloca [100 x i8], align 16
  %18 = alloca i32, align 4
  store i8* %0, i8** %6, align 8
  store i8* %1, i8** %7, align 8
  store i8* %2, i8** %8, align 8
  store i32 %3, i32* %9, align 4
  store i32 %4, i32* %10, align 4
  store i32 0, i32* %11, align 4
  store i32 0, i32* %12, align 4
  br label %19

19:                                               ; preds = %139, %5
  %20 = load i8*, i8** %6, align 8
  %21 = load i32, i32* %12, align 4
  %22 = sext i32 %21 to i64
  %23 = getelementptr inbounds i8, i8* %20, i64 %22
  %24 = load i8, i8* %23, align 1
  %25 = sext i8 %24 to i32
  %26 = icmp ne i32 %25, 0
  br i1 %26, label %27, label %140

27:                                               ; preds = %19
  store i32 1, i32* %18, align 4
  store i32 0, i32* %14, align 4
  br label %28

28:                                               ; preds = %65, %27
  %29 = load i8*, i8** %6, align 8
  %30 = load i32, i32* %12, align 4
  %31 = sext i32 %30 to i64
  %32 = getelementptr inbounds i8, i8* %29, i64 %31
  %33 = load i8, i8* %32, align 1
  %34 = sext i8 %33 to i32
  %35 = icmp ne i32 %34, 32
  br i1 %35, label %36, label %44

36:                                               ; preds = %28
  %37 = load i8*, i8** %6, align 8
  %38 = load i32, i32* %12, align 4
  %39 = sext i32 %38 to i64
  %40 = getelementptr inbounds i8, i8* %37, i64 %39
  %41 = load i8, i8* %40, align 1
  %42 = sext i8 %41 to i32
  %43 = icmp ne i32 %42, 0
  br label %44

44:                                               ; preds = %36, %28
  %45 = phi i1 [ false, %28 ], [ %43, %36 ]
  br i1 %45, label %46, label %70

46:                                               ; preds = %44
  %47 = load i8*, i8** %6, align 8
  %48 = load i32, i32* %12, align 4
  %49 = sext i32 %48 to i64
  %50 = getelementptr inbounds i8, i8* %47, i64 %49
  %51 = load i8, i8* %50, align 1
  %52 = load i32, i32* %14, align 4
  %53 = sext i32 %52 to i64
  %54 = getelementptr inbounds [100 x i8], [100 x i8]* %17, i64 0, i64 %53
  store i8 %51, i8* %54, align 1
  %55 = load i8*, i8** %6, align 8
  %56 = load i32, i32* %12, align 4
  %57 = add nsw i32 %56, 1
  %58 = sext i32 %57 to i64
  %59 = getelementptr inbounds i8, i8* %55, i64 %58
  %60 = load i8, i8* %59, align 1
  %61 = sext i8 %60 to i32
  %62 = icmp eq i32 %61, 0
  br i1 %62, label %63, label %64

63:                                               ; preds = %46
  store i32 0, i32* %18, align 4
  br label %64

64:                                               ; preds = %63, %46
  br label %65

65:                                               ; preds = %64
  %66 = load i32, i32* %14, align 4
  %67 = add nsw i32 %66, 1
  store i32 %67, i32* %14, align 4
  %68 = load i32, i32* %12, align 4
  %69 = add nsw i32 %68, 1
  store i32 %69, i32* %12, align 4
  br label %28

70:                                               ; preds = %44
  %71 = load i32, i32* %14, align 4
  %72 = sext i32 %71 to i64
  %73 = getelementptr inbounds [100 x i8], [100 x i8]* %17, i64 0, i64 %72
  store i8 0, i8* %73, align 1
  %74 = load i32, i32* %12, align 4
  %75 = load i32, i32* %14, align 4
  %76 = sub nsw i32 %74, %75
  store i32 %76, i32* %12, align 4
  %77 = getelementptr inbounds [100 x i8], [100 x i8]* %17, i64 0, i64 0
  %78 = load i8*, i8** %7, align 8
  %79 = call i32 @strcmp(i8* %77, i8* %78) #3
  %80 = icmp ne i32 %79, 0
  br i1 %80, label %81, label %104

81:                                               ; preds = %70
  store i32 0, i32* %15, align 4
  br label %82

82:                                               ; preds = %96, %81
  %83 = load i32, i32* %15, align 4
  %84 = load i32, i32* %14, align 4
  %85 = icmp sle i32 %83, %84
  br i1 %85, label %86, label %103

86:                                               ; preds = %82
  %87 = load i8*, i8** %6, align 8
  %88 = load i32, i32* %12, align 4
  %89 = sext i32 %88 to i64
  %90 = getelementptr inbounds i8, i8* %87, i64 %89
  %91 = load i8, i8* %90, align 1
  %92 = getelementptr inbounds [100 x i8], [100 x i8]* %16, i64 0, i64 0
  %93 = load i32, i32* %11, align 4
  %94 = sext i32 %93 to i64
  %95 = getelementptr inbounds i8, i8* %92, i64 %94
  store i8 %91, i8* %95, align 1
  br label %96

96:                                               ; preds = %86
  %97 = load i32, i32* %11, align 4
  %98 = add nsw i32 %97, 1
  store i32 %98, i32* %11, align 4
  %99 = load i32, i32* %12, align 4
  %100 = add nsw i32 %99, 1
  store i32 %100, i32* %12, align 4
  %101 = load i32, i32* %15, align 4
  %102 = add nsw i32 %101, 1
  store i32 %102, i32* %15, align 4
  br label %82

103:                                              ; preds = %82
  br label %130

104:                                              ; preds = %70
  store i32 0, i32* %13, align 4
  store i32 0, i32* %15, align 4
  br label %105

105:                                              ; preds = %119, %104
  %106 = load i32, i32* %15, align 4
  %107 = load i32, i32* %10, align 4
  %108 = icmp slt i32 %106, %107
  br i1 %108, label %109, label %126

109:                                              ; preds = %105
  %110 = load i8*, i8** %8, align 8
  %111 = load i32, i32* %13, align 4
  %112 = sext i32 %111 to i64
  %113 = getelementptr inbounds i8, i8* %110, i64 %112
  %114 = load i8, i8* %113, align 1
  %115 = getelementptr inbounds [100 x i8], [100 x i8]* %16, i64 0, i64 0
  %116 = load i32, i32* %11, align 4
  %117 = sext i32 %116 to i64
  %118 = getelementptr inbounds i8, i8* %115, i64 %117
  store i8 %114, i8* %118, align 1
  br label %119

119:                                              ; preds = %109
  %120 = load i32, i32* %11, align 4
  %121 = add nsw i32 %120, 1
  store i32 %121, i32* %11, align 4
  %122 = load i32, i32* %13, align 4
  %123 = add nsw i32 %122, 1
  store i32 %123, i32* %13, align 4
  %124 = load i32, i32* %15, align 4
  %125 = add nsw i32 %124, 1
  store i32 %125, i32* %15, align 4
  br label %105

126:                                              ; preds = %105
  %127 = load i32, i32* %12, align 4
  %128 = load i32, i32* %9, align 4
  %129 = add nsw i32 %127, %128
  store i32 %129, i32* %12, align 4
  br label %130

130:                                              ; preds = %126, %103
  %131 = load i32, i32* %18, align 4
  %132 = icmp eq i32 %131, 1
  br i1 %132, label %133, label %138

133:                                              ; preds = %130
  %134 = getelementptr inbounds [100 x i8], [100 x i8]* %16, i64 0, i64 0
  %135 = load i32, i32* %11, align 4
  %136 = sext i32 %135 to i64
  %137 = getelementptr inbounds i8, i8* %134, i64 %136
  store i8 32, i8* %137, align 1
  br label %139

138:                                              ; preds = %130
  br label %140

139:                                              ; preds = %133
  br label %19

140:                                              ; preds = %138, %19
  %141 = getelementptr inbounds [100 x i8], [100 x i8]* %16, i64 0, i64 0
  %142 = load i32, i32* %11, align 4
  %143 = sext i32 %142 to i64
  %144 = getelementptr inbounds i8, i8* %141, i64 %143
  store i8 0, i8* %144, align 1
  %145 = getelementptr inbounds [100 x i8], [100 x i8]* %16, i64 0, i64 0
  %146 = call i32 (i8*, ...) @printf(i8* getelementptr inbounds ([3 x i8], [3 x i8]* @.str, i64 0, i64 0), i8* %145)
  ret void
}

; Function Attrs: nounwind readonly
declare dso_local i32 @strcmp(i8*, i8*) #1

declare dso_local i32 @printf(i8*, ...) #2

; Function Attrs: noinline nounwind uwtable
define dso_local void @main() #0 {
  %1 = alloca [100 x i8], align 16
  %2 = alloca [100 x i8], align 16
  %3 = alloca [100 x i8], align 16
  %4 = alloca i32, align 4
  %5 = alloca i32, align 4
  %6 = getelementptr inbounds [100 x i8], [100 x i8]* %1, i64 0, i64 0
  %7 = call i32 (i8*, ...) bitcast (i32 (...)* @gets to i32 (i8*, ...)*)(i8* %6)
  %8 = getelementptr inbounds [100 x i8], [100 x i8]* %2, i64 0, i64 0
  %9 = call i32 (i8*, ...) bitcast (i32 (...)* @gets to i32 (i8*, ...)*)(i8* %8)
  %10 = getelementptr inbounds [100 x i8], [100 x i8]* %3, i64 0, i64 0
  %11 = call i32 (i8*, ...) bitcast (i32 (...)* @gets to i32 (i8*, ...)*)(i8* %10)
  %12 = getelementptr inbounds [100 x i8], [100 x i8]* %2, i64 0, i64 0
  %13 = call i64 @strlen(i8* %12) #3
  %14 = trunc i64 %13 to i32
  store i32 %14, i32* %4, align 4
  %15 = getelementptr inbounds [100 x i8], [100 x i8]* %3, i64 0, i64 0
  %16 = call i64 @strlen(i8* %15) #3
  %17 = trunc i64 %16 to i32
  store i32 %17, i32* %5, align 4
  %18 = getelementptr inbounds [100 x i8], [100 x i8]* %1, i64 0, i64 0
  %19 = getelementptr inbounds [100 x i8], [100 x i8]* %2, i64 0, i64 0
  %20 = getelementptr inbounds [100 x i8], [100 x i8]* %3, i64 0, i64 0
  %21 = load i32, i32* %4, align 4
  %22 = load i32, i32* %5, align 4
  call void @f(i8* %18, i8* %19, i8* %20, i32 %21, i32 %22)
  ret void
}

declare dso_local i32 @gets(...) #2

; Function Attrs: nounwind readonly
declare dso_local i64 @strlen(i8*) #1


!llvm.module.flags = !{!0}
!llvm.ident = !{!1}

!0 = !{i32 1, !"wchar_size", i32 4}
!1 = !{!"clang version 10.0.0-4ubuntu1 "}
